; Function Attrs: mustprogress uwtable
define noundef nonnull align 8 dereferenceable(8) ptr @_ZNK32pxrInternal_v0_24__pxrReserved__18UsdShadeNodeDefAPI10_GetTfTypeEv(ptr nonnull readnone align 8 captures(none) %0) unnamed_addr #0 align 2 personality ptr @__gxx_personality_v0 {
  %2 = load atomic i8, ptr @_ZGVZN32pxrInternal_v0_24__pxrReserved__18UsdShadeNodeDefAPI16_GetStaticTfTypeEvE6tfType acquire, align 8
  %3 = icmp eq i8 %2, 0
  br i1 %3, label %4, label %_ZN32pxrInternal_v0_24__pxrReserved__18UsdShadeNodeDefAPI16_GetStaticTfTypeEv.exit, !prof !4

4:                                                ; preds = %1
  %5 = tail call i32 @__cxa_guard_acquire(ptr nonnull @_ZGVZN32pxrInternal_v0_24__pxrReserved__18UsdShadeNodeDefAPI16_GetStaticTfTypeEvE6tfType) #20
  %.not.i = icmp eq i32 %5, 0
  br i1 %.not.i, label %_ZN32pxrInternal_v0_24__pxrReserved__18UsdShadeNodeDefAPI16_GetStaticTfTypeEv.exit, label %6

6:                                                ; preds = %4
  %7 = invoke noundef nonnull align 8 dereferenceable(8) ptr @_ZN32pxrInternal_v0_24__pxrReserved__6TfType13_FindByTypeidERKSt9type_info(ptr noundef nonnull align 8 dereferenceable(16) @_ZTIN32pxrInternal_v0_24__pxrReserved__18UsdShadeNodeDefAPIE)
          to label %_ZN32pxrInternal_v0_24__pxrReserved__6TfType4FindINS_18UsdShadeNodeDefAPIEEERKS0_v.exit.i unwind label %9

_ZN32pxrInternal_v0_24__pxrReserved__6TfType4FindINS_18UsdShadeNodeDefAPIEEERKS0_v.exit.i: ; preds = %6
  %8 = load i64, ptr %7, align 8
  store i64 %8, ptr @_ZZN32pxrInternal_v0_24__pxrReserved__18UsdShadeNodeDefAPI16_GetStaticTfTypeEvE6tfType, align 8
  tail call void @__cxa_guard_release(ptr nonnull @_ZGVZN32pxrInternal_v0_24__pxrReserved__18UsdShadeNodeDefAPI16_GetStaticTfTypeEvE6tfType) #20
  br label %_ZN32pxrInternal_v0_24__pxrReserved__18UsdShadeNodeDefAPI16_GetStaticTfTypeEv.exit

9:                                                ; preds = %6
  %10 = landingpad { ptr, i32 }
          cleanup
  tail call void @__cxa_guard_abort(ptr nonnull @_ZGVZN32pxrInternal_v0_24__pxrReserved__18UsdShadeNodeDefAPI16_GetStaticTfTypeEvE6tfType) #20
  resume { ptr, i32 } %10

_ZN32pxrInternal_v0_24__pxrReserved__18UsdShadeNodeDefAPI16_GetStaticTfTypeEv.exit: ; preds = %1, %4, %_ZN32pxrInternal_v0_24__pxrReserved__6TfType4FindINS_18UsdShadeNodeDefAPIEEERKS0_v.exit.i
  ret ptr @_ZZN32pxrInternal_v0_24__pxrReserved__18UsdShadeNodeDefAPI16_GetStaticTfTypeEvE6tfType
}